; Function Attrs: nounwind uwtable
define ptr @l_Lean_Elab_Tactic_Simpa_evalSimpa___lambda__7___boxed(ptr noundef %0, ptr noundef %1, ptr noundef %2, ptr noundef %3, ptr noundef %4, ptr noundef %5, ptr noundef %6, ptr noundef %7, ptr noundef %8, ptr noundef %9, ptr noundef %10, ptr noundef %11, ptr noundef %12, ptr noundef %13) local_unnamed_addr #1 {
  %15 = tail call ptr @l_Lean_MVarId_assign___at_Lean_Elab_Tactic_refineCore___spec__1(ptr noundef %0, ptr noundef %1, ptr noundef %5, ptr noundef %6, ptr noundef %7, ptr noundef %8, ptr noundef %9, ptr noundef %10, ptr noundef %11, ptr noundef %12, ptr noundef %13) #5
  %16 = getelementptr inbounds nuw i8, ptr %15, i64 16
  %17 = load ptr, ptr %16, align 8, !tbaa !4
  %18 = ptrtoint ptr %17 to i64
  %19 = and i64 %18, 1
  %.not.i16 = icmp eq i64 %19, 0
  br i1 %.not.i16, label %20, label %lean_inc.exit.i

20:                                               ; preds = %14
  %.val.i.i = load i32, ptr %17, align 4, !tbaa !8
  %21 = icmp sgt i32 %.val.i.i, 0
  br i1 %21, label %22, label %24, !prof !11

22:                                               ; preds = %20
  %23 = add nuw i32 %.val.i.i, 1
  store i32 %23, ptr %17, align 4, !tbaa !8
  br label %lean_inc.exit.i

24:                                               ; preds = %20
  %.not.i26.i = icmp eq i32 %.val.i.i, 0
  br i1 %.not.i26.i, label %lean_inc.exit.i, label %25

25:                                               ; preds = %24
  tail call void @lean_inc_ref_cold(ptr noundef nonnull %17) #5
  br label %lean_inc.exit.i

lean_inc.exit.i:                                  ; preds = %25, %24, %22, %14
  %26 = ptrtoint ptr %15 to i64
  %27 = and i64 %26, 1
  %.not27.i = icmp eq i64 %27, 0
  br i1 %.not27.i, label %28, label %l_Lean_Elab_Tactic_Simpa_evalSimpa___lambda__7.exit

28:                                               ; preds = %lean_inc.exit.i
  %29 = load i32, ptr %15, align 4, !tbaa !8
  %30 = icmp sgt i32 %29, 1
  br i1 %30, label %31, label %33, !prof !11

31:                                               ; preds = %28
  %32 = add nsw i32 %29, -1
  store i32 %32, ptr %15, align 4, !tbaa !8
  br label %l_Lean_Elab_Tactic_Simpa_evalSimpa___lambda__7.exit

33:                                               ; preds = %28
  %.not.i.i = icmp eq i32 %29, 0
  br i1 %.not.i.i, label %l_Lean_Elab_Tactic_Simpa_evalSimpa___lambda__7.exit, label %34

34:                                               ; preds = %33
  tail call void @lean_dec_ref_cold(ptr noundef nonnull %15) #5
  br label %l_Lean_Elab_Tactic_Simpa_evalSimpa___lambda__7.exit

l_Lean_Elab_Tactic_Simpa_evalSimpa___lambda__7.exit: ; preds = %lean_inc.exit.i, %31, %33, %34
  %35 = tail call ptr @lean_apply_10(ptr noundef %2, ptr noundef %3, ptr noundef %5, ptr noundef %6, ptr noundef %7, ptr noundef %8, ptr noundef %9, ptr noundef %10, ptr noundef %11, ptr noundef %12, ptr noundef %17) #5
  %36 = ptrtoint ptr %4 to i64
  %37 = and i64 %36, 1
  %.not = icmp eq i64 %37, 0
  br i1 %.not, label %38, label %lean_dec.exit

38:                                               ; preds = %l_Lean_Elab_Tactic_Simpa_evalSimpa___lambda__7.exit
  %39 = load i32, ptr %4, align 4, !tbaa !8
  %40 = icmp sgt i32 %39, 1
  br i1 %40, label %41, label %43, !prof !11

41:                                               ; preds = %38
  %42 = add nsw i32 %39, -1
  store i32 %42, ptr %4, align 4, !tbaa !8
  br label %lean_dec.exit

43:                                               ; preds = %38
  %.not.i = icmp eq i32 %39, 0
  br i1 %.not.i, label %lean_dec.exit, label %44

44:                                               ; preds = %43
  tail call void @lean_dec_ref_cold(ptr noundef nonnull %4) #5
  br label %lean_dec.exit

lean_dec.exit:                                    ; preds = %44, %43, %41, %l_Lean_Elab_Tactic_Simpa_evalSimpa___lambda__7.exit
  ret ptr %35
}